target datalayout = "e-m:e-p270:32:32-p271:32:32-p272:64:64-i64:64-i128:128-f80:128-n8:16:32:64-S128"
target triple = "x86_64-pc-linux-gnu"

%"struct.std::_Rb_tree_node_base" = type { i32, ptr, ptr, ptr }

; Function Attrs: mustprogress nounwind uwtable
define internal noundef ptr @_ZNSt8_Rb_treeINSt7__cxx1112basic_stringIcSt11char_traitsIcESaIcEEESt4pairIKS5_MN2cv3dnn14dnn4_v2024122312_GLOBAL__N_110TFImporterEFvRN17opencv_tensorflow8GraphDefERKNSD_7NodeDefERNSA_11LayerParamsEEESt10_Select1stISN_ESt4lessIS5_ESaISN_EE7_S_leftEPSt18_Rb_tree_node_base(ptr noundef %0) #6 align 2 {
  %2 = alloca ptr, align 8
  store ptr %0, ptr %2, align 8, !tbaa !135
  %3 = load ptr, ptr %2, align 8, !tbaa !135
  %4 = getelementptr inbounds nuw %"struct.std::_Rb_tree_node_base", ptr %3, i32 0, i32 2
  %5 = load ptr, ptr %4, align 8, !tbaa !159
  ret ptr %5
}

; Function Attrs: mustprogress nounwind uwtable
define internal noundef ptr @_ZNSt8_Rb_treeINSt7__cxx1112basic_stringIcSt11char_traitsIcESaIcEEESt4pairIKS5_MN2cv3dnn14dnn4_v2024122312_GLOBAL__N_110TFImporterEFvRN17opencv_tensorflow8GraphDefERKNSD_7NodeDefERNSA_11LayerParamsEEESt10_Select1stISN_ESt4lessIS5_ESaISN_EE8_S_rightEPSt18_Rb_tree_node_base(ptr noundef %0) #6 align 2 {
  %2 = alloca ptr, align 8
  store ptr %0, ptr %2, align 8, !tbaa !135
  %3 = load ptr, ptr %2, align 8, !tbaa !135
  %4 = getelementptr inbounds nuw %"struct.std::_Rb_tree_node_base", ptr %3, i32 0, i32 3
  %5 = load ptr, ptr %4, align 8, !tbaa !162
  ret ptr %5
}

; Function Attrs: mustprogress uwtable
define internal noundef ptr @_ZNSt8_Rb_treeINSt7__cxx1112basic_stringIcSt11char_traitsIcESaIcEEESt4pairIKS5_MN2cv3dnn14dnn4_v2024122312_GLOBAL__N_110TFImporterEFvRN17opencv_tensorflow8GraphDefERKNSD_7NodeDefERNSA_11LayerParamsEEESt10_Select1stISN_ESt4lessIS5_ESaISN_EE7_M_copyILb0ENST_11_Alloc_nodeEEEPSt13_Rb_tree_nodeISN_ESY_PSt18_Rb_tree_node_baseRT0_(ptr noundef nonnull align 8 dereferenceable(48) %0, ptr noundef %1, ptr noundef %2, ptr noundef nonnull align 8 dereferenceable(8) %3) #4 align 2 personality ptr @__gxx_personality_v0 {
  %5 = alloca ptr, align 8
  %6 = alloca ptr, align 8
  %7 = alloca ptr, align 8
  %8 = alloca ptr, align 8
  %9 = alloca ptr, align 8
  %10 = alloca ptr, align 8
  %11 = alloca i32, align 4
  %12 = alloca ptr, align 8
  store ptr %0, ptr %5, align 8, !tbaa !444
  store ptr %1, ptr %6, align 8, !tbaa !1002
  store ptr %2, ptr %7, align 8, !tbaa !135
  store ptr %3, ptr %8, align 8, !tbaa !1172
  %13 = load ptr, ptr %5, align 8
  call void @llvm.lifetime.start.p0(i64 8, ptr %9) #3
  %14 = load ptr, ptr %6, align 8, !tbaa !1002
  %15 = load ptr, ptr %8, align 8, !tbaa !1172
  %16 = call noundef ptr @_ZNSt8_Rb_treeINSt7__cxx1112basic_stringIcSt11char_traitsIcESaIcEEESt4pairIKS5_MN2cv3dnn14dnn4_v2024122312_GLOBAL__N_110TFImporterEFvRN17opencv_tensorflow8GraphDefERKNSD_7NodeDefERNSA_11LayerParamsEEESt10_Select1stISN_ESt4lessIS5_ESaISN_EE13_M_clone_nodeILb0ENST_11_Alloc_nodeEEEPSt13_Rb_tree_nodeISN_ESY_RT0_(ptr noundef nonnull align 8 dereferenceable(48) %13, ptr noundef %14, ptr noundef nonnull align 8 dereferenceable(8) %15)
  store ptr %16, ptr %9, align 8, !tbaa !1002
  %17 = load ptr, ptr %7, align 8, !tbaa !135
  %18 = load ptr, ptr %9, align 8, !tbaa !1002
  %19 = getelementptr inbounds nuw %"struct.std::_Rb_tree_node_base", ptr %18, i32 0, i32 1
  store ptr %17, ptr %19, align 8, !tbaa !605
  %20 = load ptr, ptr %6, align 8, !tbaa !1002
  %21 = getelementptr inbounds nuw %"struct.std::_Rb_tree_node_base", ptr %20, i32 0, i32 3
  %22 = load ptr, ptr %21, align 8, !tbaa !162
  %23 = icmp ne ptr %22, null
  br i1 %23, label %24, label %37

24:                                               ; preds = %4
  %25 = load ptr, ptr %6, align 8, !tbaa !1002
  %26 = call noundef ptr @_ZNSt8_Rb_treeINSt7__cxx1112basic_stringIcSt11char_traitsIcESaIcEEESt4pairIKS5_MN2cv3dnn14dnn4_v2024122312_GLOBAL__N_110TFImporterEFvRN17opencv_tensorflow8GraphDefERKNSD_7NodeDefERNSA_11LayerParamsEEESt10_Select1stISN_ESt4lessIS5_ESaISN_EE8_S_rightEPSt18_Rb_tree_node_base(ptr noundef %25) #3
  %27 = load ptr, ptr %9, align 8, !tbaa !1002
  %28 = load ptr, ptr %8, align 8, !tbaa !1172
  %29 = invoke noundef ptr @_ZNSt8_Rb_treeINSt7__cxx1112basic_stringIcSt11char_traitsIcESaIcEEESt4pairIKS5_MN2cv3dnn14dnn4_v2024122312_GLOBAL__N_110TFImporterEFvRN17opencv_tensorflow8GraphDefERKNSD_7NodeDefERNSA_11LayerParamsEEESt10_Select1stISN_ESt4lessIS5_ESaISN_EE7_M_copyILb0ENST_11_Alloc_nodeEEEPSt13_Rb_tree_nodeISN_ESY_PSt18_Rb_tree_node_baseRT0_(ptr noundef nonnull align 8 dereferenceable(48) %13, ptr noundef %26, ptr noundef %27, ptr noundef nonnull align 8 dereferenceable(8) %28)
          to label %30 unwind label %33

30:                                               ; preds = %24
  %31 = load ptr, ptr %9, align 8, !tbaa !1002
  %32 = getelementptr inbounds nuw %"struct.std::_Rb_tree_node_base", ptr %31, i32 0, i32 3
  store ptr %29, ptr %32, align 8, !tbaa !162
  br label %37

33:                                               ; preds = %24
  %34 = landingpad { ptr, i32 }
          catch ptr null
  %35 = extractvalue { ptr, i32 } %34, 0
  store ptr %35, ptr %10, align 8
  %36 = extractvalue { ptr, i32 } %34, 1
  store i32 %36, ptr %11, align 4
  br label %72

37:                                               ; preds = %30, %4
  %38 = load ptr, ptr %9, align 8, !tbaa !1002
  store ptr %38, ptr %7, align 8, !tbaa !135
  %39 = load ptr, ptr %6, align 8, !tbaa !1002
  %40 = call noundef ptr @_ZNSt8_Rb_treeINSt7__cxx1112basic_stringIcSt11char_traitsIcESaIcEEESt4pairIKS5_MN2cv3dnn14dnn4_v2024122312_GLOBAL__N_110TFImporterEFvRN17opencv_tensorflow8GraphDefERKNSD_7NodeDefERNSA_11LayerParamsEEESt10_Select1stISN_ESt4lessIS5_ESaISN_EE7_S_leftEPSt18_Rb_tree_node_base(ptr noundef %39) #3
  store ptr %40, ptr %6, align 8, !tbaa !1002
  br label %41

41:                                               ; preds = %77, %37
  %42 = load ptr, ptr %6, align 8, !tbaa !1002
  %43 = icmp ne ptr %42, null
  br i1 %43, label %44, label %81

44:                                               ; preds = %41
  call void @llvm.lifetime.start.p0(i64 8, ptr %12) #3
  %45 = load ptr, ptr %6, align 8, !tbaa !1002
  %46 = load ptr, ptr %8, align 8, !tbaa !1172
  %47 = invoke noundef ptr @_ZNSt8_Rb_treeINSt7__cxx1112basic_stringIcSt11char_traitsIcESaIcEEESt4pairIKS5_MN2cv3dnn14dnn4_v2024122312_GLOBAL__N_110TFImporterEFvRN17opencv_tensorflow8GraphDefERKNSD_7NodeDefERNSA_11LayerParamsEEESt10_Select1stISN_ESt4lessIS5_ESaISN_EE13_M_clone_nodeILb0ENST_11_Alloc_nodeEEEPSt13_Rb_tree_nodeISN_ESY_RT0_(ptr noundef nonnull align 8 dereferenceable(48) %13, ptr noundef %45, ptr noundef nonnull align 8 dereferenceable(8) %46)
          to label %48 unwind label %68

48:                                               ; preds = %44
  store ptr %47, ptr %12, align 8, !tbaa !1002
  %49 = load ptr, ptr %12, align 8, !tbaa !1002
  %50 = load ptr, ptr %7, align 8, !tbaa !135
  %51 = getelementptr inbounds nuw %"struct.std::_Rb_tree_node_base", ptr %50, i32 0, i32 2
  store ptr %49, ptr %51, align 8, !tbaa !159
  %52 = load ptr, ptr %7, align 8, !tbaa !135
  %53 = load ptr, ptr %12, align 8, !tbaa !1002
  %54 = getelementptr inbounds nuw %"struct.std::_Rb_tree_node_base", ptr %53, i32 0, i32 1
  store ptr %52, ptr %54, align 8, !tbaa !605
  %55 = load ptr, ptr %6, align 8, !tbaa !1002
  %56 = getelementptr inbounds nuw %"struct.std::_Rb_tree_node_base", ptr %55, i32 0, i32 3
  %57 = load ptr, ptr %56, align 8, !tbaa !162
  %58 = icmp ne ptr %57, null
  br i1 %58, label %59, label %77

59:                                               ; preds = %48
  %60 = load ptr, ptr %6, align 8, !tbaa !1002
  %61 = call noundef ptr @_ZNSt8_Rb_treeINSt7__cxx1112basic_stringIcSt11char_traitsIcESaIcEEESt4pairIKS5_MN2cv3dnn14dnn4_v2024122312_GLOBAL__N_110TFImporterEFvRN17opencv_tensorflow8GraphDefERKNSD_7NodeDefERNSA_11LayerParamsEEESt10_Select1stISN_ESt4lessIS5_ESaISN_EE8_S_rightEPSt18_Rb_tree_node_base(ptr noundef %60) #3
  %62 = load ptr, ptr %12, align 8, !tbaa !1002
  %63 = load ptr, ptr %8, align 8, !tbaa !1172
  %64 = invoke noundef ptr @_ZNSt8_Rb_treeINSt7__cxx1112basic_stringIcSt11char_traitsIcESaIcEEESt4pairIKS5_MN2cv3dnn14dnn4_v2024122312_GLOBAL__N_110TFImporterEFvRN17opencv_tensorflow8GraphDefERKNSD_7NodeDefERNSA_11LayerParamsEEESt10_Select1stISN_ESt4lessIS5_ESaISN_EE7_M_copyILb0ENST_11_Alloc_nodeEEEPSt13_Rb_tree_nodeISN_ESY_PSt18_Rb_tree_node_baseRT0_(ptr noundef nonnull align 8 dereferenceable(48) %13, ptr noundef %61, ptr noundef %62, ptr noundef nonnull align 8 dereferenceable(8) %63)
          to label %65 unwind label %68

65:                                               ; preds = %59
  %66 = load ptr, ptr %12, align 8, !tbaa !1002
  %67 = getelementptr inbounds nuw %"struct.std::_Rb_tree_node_base", ptr %66, i32 0, i32 3
  store ptr %64, ptr %67, align 8, !tbaa !162
  br label %77

68:                                               ; preds = %59, %44
  %69 = landingpad { ptr, i32 }
          catch ptr null
  %70 = extractvalue { ptr, i32 } %69, 0
  store ptr %70, ptr %10, align 8
  %71 = extractvalue { ptr, i32 } %69, 1
  store i32 %71, ptr %11, align 4
  call void @llvm.lifetime.end.p0(i64 8, ptr %12) #3
  br label %72

72:                                               ; preds = %68, %33
  %73 = load ptr, ptr %10, align 8
  %74 = call ptr @__cxa_begin_catch(ptr %73) #3
  %75 = load ptr, ptr %9, align 8, !tbaa !1002
  invoke void @_ZNSt8_Rb_treeINSt7__cxx1112basic_stringIcSt11char_traitsIcESaIcEEESt4pairIKS5_MN2cv3dnn14dnn4_v2024122312_GLOBAL__N_110TFImporterEFvRN17opencv_tensorflow8GraphDefERKNSD_7NodeDefERNSA_11LayerParamsEEESt10_Select1stISN_ESt4lessIS5_ESaISN_EE8_M_eraseEPSt13_Rb_tree_nodeISN_E(ptr noundef nonnull align 8 dereferenceable(48) %13, ptr noundef %75)
          to label %76 unwind label %82

76:                                               ; preds = %72
  invoke void @__cxa_rethrow() #25
          to label %97 unwind label %82

77:                                               ; preds = %65, %48
  %78 = load ptr, ptr %12, align 8, !tbaa !1002
  store ptr %78, ptr %7, align 8, !tbaa !135
  %79 = load ptr, ptr %6, align 8, !tbaa !1002
  %80 = call noundef ptr @_ZNSt8_Rb_treeINSt7__cxx1112basic_stringIcSt11char_traitsIcESaIcEEESt4pairIKS5_MN2cv3dnn14dnn4_v2024122312_GLOBAL__N_110TFImporterEFvRN17opencv_tensorflow8GraphDefERKNSD_7NodeDefERNSA_11LayerParamsEEESt10_Select1stISN_ESt4lessIS5_ESaISN_EE7_S_leftEPSt18_Rb_tree_node_base(ptr noundef %79) #3
  store ptr %80, ptr %6, align 8, !tbaa !1002
  call void @llvm.lifetime.end.p0(i64 8, ptr %12) #3
  br label %41, !llvm.loop !1174

81:                                               ; preds = %41
  br label %87

82:                                               ; preds = %76, %72
  %83 = landingpad { ptr, i32 }
          cleanup
  %84 = extractvalue { ptr, i32 } %83, 0
  store ptr %84, ptr %10, align 8
  %85 = extractvalue { ptr, i32 } %83, 1
  store i32 %85, ptr %11, align 4
  invoke void @__cxa_end_catch()
          to label %86 unwind label %94

86:                                               ; preds = %82
  call void @llvm.lifetime.end.p0(i64 8, ptr %9) #3
  br label %89

87:                                               ; preds = %81
  %88 = load ptr, ptr %9, align 8, !tbaa !1002
  call void @llvm.lifetime.end.p0(i64 8, ptr %9) #3
  ret ptr %88

89:                                               ; preds = %86
  %90 = load ptr, ptr %10, align 8
  %91 = load i32, ptr %11, align 4
  %92 = insertvalue { ptr, i32 } poison, ptr %90, 0
  %93 = insertvalue { ptr, i32 } %92, i32 %91, 1
  resume { ptr, i32 } %93

94:                                               ; preds = %82
  %95 = landingpad { ptr, i32 }
          catch ptr null
  %96 = extractvalue { ptr, i32 } %95, 0
  call void @__clang_call_terminate(ptr %96) #24
  unreachable

97:                                               ; preds = %76
  unreachable
}