; Function Attrs: mustprogress uwtable
define internal fastcc noundef nonnull ptr @_ZNSt8_Rb_treeINSt7__cxx1112basic_stringIcSt11char_traitsIcESaIcEEESt4pairIKS5_MN2cv3dnn14dnn4_v2024122312_GLOBAL__N_110TFImporterEFvRN17opencv_tensorflow8GraphDefERKNSD_7NodeDefERNSA_11LayerParamsEEESt10_Select1stISN_ESt4lessIS5_ESaISN_EE7_M_copyILb0ENST_11_Alloc_nodeEEEPSt13_Rb_tree_nodeISN_ESY_PSt18_Rb_tree_node_baseRT0_(ptr noundef readonly captures(none) %0, ptr noundef %1) unnamed_addr #3 align 2 personality ptr @__gxx_personality_v0 {
  %3 = tail call fastcc noundef ptr @_ZNSt8_Rb_treeINSt7__cxx1112basic_stringIcSt11char_traitsIcESaIcEEESt4pairIKS5_MN2cv3dnn14dnn4_v2024122312_GLOBAL__N_110TFImporterEFvRN17opencv_tensorflow8GraphDefERKNSD_7NodeDefERNSA_11LayerParamsEEESt10_Select1stISN_ESt4lessIS5_ESaISN_EE13_M_clone_nodeILb0ENST_11_Alloc_nodeEEEPSt13_Rb_tree_nodeISN_ESY_RT0_(ptr noundef %0)
  %4 = getelementptr inbounds nuw i8, ptr %3, i64 8
  store ptr %1, ptr %4, align 8, !tbaa !768
  %5 = getelementptr inbounds nuw i8, ptr %0, i64 24
  %6 = load ptr, ptr %5, align 8, !tbaa !168
  %.not = icmp eq ptr %6, null
  br i1 %.not, label %13, label %7

7:                                                ; preds = %2
  %8 = invoke fastcc noundef ptr @_ZNSt8_Rb_treeINSt7__cxx1112basic_stringIcSt11char_traitsIcESaIcEEESt4pairIKS5_MN2cv3dnn14dnn4_v2024122312_GLOBAL__N_110TFImporterEFvRN17opencv_tensorflow8GraphDefERKNSD_7NodeDefERNSA_11LayerParamsEEESt10_Select1stISN_ESt4lessIS5_ESaISN_EE7_M_copyILb0ENST_11_Alloc_nodeEEEPSt13_Rb_tree_nodeISN_ESY_PSt18_Rb_tree_node_baseRT0_(ptr noundef nonnull %6, ptr noundef nonnull %3)
          to label %9 unwind label %11

9:                                                ; preds = %7
  %10 = getelementptr inbounds nuw i8, ptr %3, i64 24
  store ptr %8, ptr %10, align 8, !tbaa !168
  br label %13

11:                                               ; preds = %7
  %12 = landingpad { ptr, i32 }
          catch ptr null
  br label %26

13:                                               ; preds = %9, %2
  %.0.in2 = getelementptr i8, ptr %0, i64 16
  %.03 = load ptr, ptr %.0.in2, align 8, !tbaa !166
  %.not324 = icmp eq ptr %.03, null
  br i1 %.not324, label %._crit_edge, label %.lr.ph

.lr.ph:                                           ; preds = %13, %28
  %.06 = phi ptr [ %.0, %28 ], [ %.03, %13 ]
  %.0315 = phi ptr [ %14, %28 ], [ %3, %13 ]
  %14 = invoke fastcc noundef ptr @_ZNSt8_Rb_treeINSt7__cxx1112basic_stringIcSt11char_traitsIcESaIcEEESt4pairIKS5_MN2cv3dnn14dnn4_v2024122312_GLOBAL__N_110TFImporterEFvRN17opencv_tensorflow8GraphDefERKNSD_7NodeDefERNSA_11LayerParamsEEESt10_Select1stISN_ESt4lessIS5_ESaISN_EE13_M_clone_nodeILb0ENST_11_Alloc_nodeEEEPSt13_Rb_tree_nodeISN_ESY_RT0_(ptr noundef nonnull %.06)
          to label %15 unwind label %24

15:                                               ; preds = %.lr.ph
  %16 = getelementptr inbounds nuw i8, ptr %.0315, i64 16
  store ptr %14, ptr %16, align 8, !tbaa !166
  %17 = getelementptr inbounds nuw i8, ptr %14, i64 8
  store ptr %.0315, ptr %17, align 8, !tbaa !768
  %18 = getelementptr inbounds nuw i8, ptr %.06, i64 24
  %19 = load ptr, ptr %18, align 8, !tbaa !168
  %.not33 = icmp eq ptr %19, null
  br i1 %.not33, label %28, label %20

20:                                               ; preds = %15
  %21 = invoke fastcc noundef ptr @_ZNSt8_Rb_treeINSt7__cxx1112basic_stringIcSt11char_traitsIcESaIcEEESt4pairIKS5_MN2cv3dnn14dnn4_v2024122312_GLOBAL__N_110TFImporterEFvRN17opencv_tensorflow8GraphDefERKNSD_7NodeDefERNSA_11LayerParamsEEESt10_Select1stISN_ESt4lessIS5_ESaISN_EE7_M_copyILb0ENST_11_Alloc_nodeEEEPSt13_Rb_tree_nodeISN_ESY_PSt18_Rb_tree_node_baseRT0_(ptr noundef nonnull %19, ptr noundef nonnull %14)
          to label %22 unwind label %24

22:                                               ; preds = %20
  %23 = getelementptr inbounds nuw i8, ptr %14, i64 24
  store ptr %21, ptr %23, align 8, !tbaa !168
  br label %28

24:                                               ; preds = %20, %.lr.ph
  %25 = landingpad { ptr, i32 }
          catch ptr null
  br label %26

26:                                               ; preds = %24, %11
  %.pn = phi { ptr, i32 } [ %25, %24 ], [ %12, %11 ]
  %.030 = extractvalue { ptr, i32 } %.pn, 0
  %27 = tail call ptr @__cxa_begin_catch(ptr %.030) #29
  tail call fastcc void @_ZNSt8_Rb_treeINSt7__cxx1112basic_stringIcSt11char_traitsIcESaIcEEESt4pairIKS5_MN2cv3dnn14dnn4_v2024122312_GLOBAL__N_110TFImporterEFvRN17opencv_tensorflow8GraphDefERKNSD_7NodeDefERNSA_11LayerParamsEEESt10_Select1stISN_ESt4lessIS5_ESaISN_EE8_M_eraseEPSt13_Rb_tree_nodeISN_E(ptr noundef nonnull %3)
  invoke void @__cxa_rethrow() #30
          to label %35 unwind label %29

28:                                               ; preds = %22, %15
  %.0.in = getelementptr i8, ptr %.06, i64 16
  %.0 = load ptr, ptr %.0.in, align 8, !tbaa !166
  %.not32 = icmp eq ptr %.0, null
  br i1 %.not32, label %._crit_edge, label %.lr.ph, !llvm.loop !990

29:                                               ; preds = %26
  %30 = landingpad { ptr, i32 }
          cleanup
  invoke void @__cxa_end_catch()
          to label %31 unwind label %32

31:                                               ; preds = %29
  resume { ptr, i32 } %30

._crit_edge:                                      ; preds = %28, %13
  ret ptr %3

32:                                               ; preds = %29
  %33 = landingpad { ptr, i32 }
          catch ptr null
  %34 = extractvalue { ptr, i32 } %33, 0
  tail call void @__clang_call_terminate(ptr %34) #32
  unreachable

35:                                               ; preds = %26
  unreachable
}